target datalayout = "e-m:e-p270:32:32-p271:32:32-p272:64:64-i64:64-i128:128-f80:128-n8:16:32:64-S128"
target triple = "x86_64-pc-linux-gnu"

%struct.varattrib_1b = type { i8, [0 x i8] }
%struct.varattrib_1b_e = type { i8, i8, [0 x i8] }
%struct.anon = type { i32, [0 x i8] }

; Function Attrs: inlinehint nounwind uwtable
define internal i64 @PointerGetDatum(ptr noundef %0) #2 {
  %2 = alloca ptr, align 8
  store ptr %0, ptr %2, align 8
  %3 = load ptr, ptr %2, align 8
  %4 = ptrtoint ptr %3 to i64
  ret i64 %4
}

; Function Attrs: inlinehint nounwind uwtable
define internal ptr @DatumGetPointer(i64 noundef %0) #2 {
  %2 = alloca i64, align 8
  store i64 %0, ptr %2, align 8
  %3 = load i64, ptr %2, align 8
  %4 = inttoptr i64 %3 to ptr
  ret ptr %4
}

; Function Attrs: nounwind uwtable
define dso_local i64 @datumCopy(i64 noundef %0, i1 noundef zeroext %1, i32 noundef %2) #0 {
  %4 = alloca i64, align 8
  %5 = alloca i8, align 1
  %6 = alloca i32, align 4
  %7 = alloca i64, align 8
  %8 = alloca ptr, align 8
  %9 = alloca ptr, align 8
  %10 = alloca i64, align 8
  %11 = alloca ptr, align 8
  %12 = alloca i64, align 8
  %13 = alloca ptr, align 8
  %14 = alloca i64, align 8
  %15 = alloca ptr, align 8
  store i64 %0, ptr %4, align 8
  %16 = zext i1 %1 to i8
  store i8 %16, ptr %5, align 1
  store i32 %2, ptr %6, align 4
  call void @llvm.lifetime.start.p0(i64 8, ptr %7) #7
  %17 = load i8, ptr %5, align 1, !range !4, !noundef !5
  %18 = trunc i8 %17 to i1
  br i1 %18, label %19, label %21

19:                                               ; preds = %3
  %20 = load i64, ptr %4, align 8
  store i64 %20, ptr %7, align 8
  br label %132

21:                                               ; preds = %3
  %22 = load i32, ptr %6, align 4
  %23 = icmp eq i32 %22, -1
  br i1 %23, label %24, label %117

24:                                               ; preds = %21
  call void @llvm.lifetime.start.p0(i64 8, ptr %8) #7
  %25 = load i64, ptr %4, align 8
  %26 = call ptr @DatumGetPointer(i64 noundef %25)
  store ptr %26, ptr %8, align 8
  %27 = load ptr, ptr %8, align 8
  %28 = getelementptr inbounds nuw %struct.varattrib_1b, ptr %27, i32 0, i32 0
  %29 = load i8, ptr %28, align 1
  %30 = zext i8 %29 to i32
  %31 = icmp eq i32 %30, 1
  br i1 %31, label %32, label %51

32:                                               ; preds = %24
  %33 = load ptr, ptr %8, align 8
  %34 = getelementptr inbounds nuw %struct.varattrib_1b_e, ptr %33, i32 0, i32 1
  %35 = load i8, ptr %34, align 1
  %36 = zext i8 %35 to i32
  %37 = and i32 %36, -2
  %38 = icmp eq i32 %37, 2
  br i1 %38, label %39, label %51

39:                                               ; preds = %32
  call void @llvm.lifetime.start.p0(i64 8, ptr %9) #7
  %40 = load i64, ptr %4, align 8
  %41 = call ptr @DatumGetEOHP(i64 noundef %40)
  store ptr %41, ptr %9, align 8
  call void @llvm.lifetime.start.p0(i64 8, ptr %10) #7
  call void @llvm.lifetime.start.p0(i64 8, ptr %11) #7
  %42 = load ptr, ptr %9, align 8
  %43 = call i64 @EOH_get_flat_size(ptr noundef %42)
  store i64 %43, ptr %10, align 8
  %44 = load i64, ptr %10, align 8
  %45 = call ptr @palloc(i64 noundef %44)
  store ptr %45, ptr %11, align 8
  %46 = load ptr, ptr %9, align 8
  %47 = load ptr, ptr %11, align 8
  %48 = load i64, ptr %10, align 8
  call void @EOH_flatten_into(ptr noundef %46, ptr noundef %47, i64 noundef %48)
  %49 = load ptr, ptr %11, align 8
  %50 = call i64 @PointerGetDatum(ptr noundef %49)
  store i64 %50, ptr %7, align 8
  call void @llvm.lifetime.end.p0(i64 8, ptr %11) #7
  call void @llvm.lifetime.end.p0(i64 8, ptr %10) #7
  call void @llvm.lifetime.end.p0(i64 8, ptr %9) #7
  br label %116

51:                                               ; preds = %32, %24
  call void @llvm.lifetime.start.p0(i64 8, ptr %12) #7
  call void @llvm.lifetime.start.p0(i64 8, ptr %13) #7
  %52 = load ptr, ptr %8, align 8
  %53 = getelementptr inbounds nuw %struct.varattrib_1b, ptr %52, i32 0, i32 0
  %54 = load i8, ptr %53, align 1
  %55 = zext i8 %54 to i32
  %56 = icmp eq i32 %55, 1
  br i1 %56, label %57, label %84

57:                                               ; preds = %51
  %58 = load ptr, ptr %8, align 8
  %59 = getelementptr inbounds nuw %struct.varattrib_1b_e, ptr %58, i32 0, i32 1
  %60 = load i8, ptr %59, align 1
  %61 = zext i8 %60 to i32
  %62 = icmp eq i32 %61, 1
  br i1 %62, label %63, label %64

63:                                               ; preds = %57
  br label %81

64:                                               ; preds = %57
  %65 = load ptr, ptr %8, align 8
  %66 = getelementptr inbounds nuw %struct.varattrib_1b_e, ptr %65, i32 0, i32 1
  %67 = load i8, ptr %66, align 1
  %68 = zext i8 %67 to i32
  %69 = and i32 %68, -2
  %70 = icmp eq i32 %69, 2
  br i1 %70, label %71, label %72

71:                                               ; preds = %64
  br label %79

72:                                               ; preds = %64
  %73 = load ptr, ptr %8, align 8
  %74 = getelementptr inbounds nuw %struct.varattrib_1b_e, ptr %73, i32 0, i32 1
  %75 = load i8, ptr %74, align 1
  %76 = zext i8 %75 to i32
  %77 = icmp eq i32 %76, 18
  %78 = select i1 %77, i64 16, i64 0
  br label %79

79:                                               ; preds = %72, %71
  %80 = phi i64 [ 8, %71 ], [ %78, %72 ]
  br label %81

81:                                               ; preds = %79, %63
  %82 = phi i64 [ 8, %63 ], [ %80, %79 ]
  %83 = add i64 2, %82
  br label %107

84:                                               ; preds = %51
  %85 = load ptr, ptr %8, align 8
  %86 = getelementptr inbounds nuw %struct.varattrib_1b, ptr %85, i32 0, i32 0
  %87 = load i8, ptr %86, align 1
  %88 = zext i8 %87 to i32
  %89 = and i32 %88, 1
  %90 = icmp eq i32 %89, 1
  br i1 %90, label %91, label %98

91:                                               ; preds = %84
  %92 = load ptr, ptr %8, align 8
  %93 = getelementptr inbounds nuw %struct.varattrib_1b, ptr %92, i32 0, i32 0
  %94 = load i8, ptr %93, align 1
  %95 = zext i8 %94 to i32
  %96 = ashr i32 %95, 1
  %97 = and i32 %96, 127
  br label %104

98:                                               ; preds = %84
  %99 = load ptr, ptr %8, align 8
  %100 = getelementptr inbounds nuw %struct.anon, ptr %99, i32 0, i32 0
  %101 = load i32, ptr %100, align 4
  %102 = lshr i32 %101, 2
  %103 = and i32 %102, 1073741823
  br label %104

104:                                              ; preds = %98, %91
  %105 = phi i32 [ %97, %91 ], [ %103, %98 ]
  %106 = zext i32 %105 to i64
  br label %107

107:                                              ; preds = %104, %81
  %108 = phi i64 [ %83, %81 ], [ %106, %104 ]
  store i64 %108, ptr %12, align 8
  %109 = load i64, ptr %12, align 8
  %110 = call ptr @palloc(i64 noundef %109)
  store ptr %110, ptr %13, align 8
  %111 = load ptr, ptr %13, align 8
  %112 = load ptr, ptr %8, align 8
  %113 = load i64, ptr %12, align 8
  call void @llvm.memcpy.p0.p0.i64(ptr align 1 %111, ptr align 1 %112, i64 %113, i1 false)
  %114 = load ptr, ptr %13, align 8
  %115 = call i64 @PointerGetDatum(ptr noundef %114)
  store i64 %115, ptr %7, align 8
  call void @llvm.lifetime.end.p0(i64 8, ptr %13) #7
  call void @llvm.lifetime.end.p0(i64 8, ptr %12) #7
  br label %116

116:                                              ; preds = %107, %39
  call void @llvm.lifetime.end.p0(i64 8, ptr %8) #7
  br label %131

117:                                              ; preds = %21
  call void @llvm.lifetime.start.p0(i64 8, ptr %14) #7
  call void @llvm.lifetime.start.p0(i64 8, ptr %15) #7
  %118 = load i64, ptr %4, align 8
  %119 = load i8, ptr %5, align 1, !range !4, !noundef !5
  %120 = trunc i8 %119 to i1
  %121 = load i32, ptr %6, align 4
  %122 = call i64 @datumGetSize(i64 noundef %118, i1 noundef zeroext %120, i32 noundef %121)
  store i64 %122, ptr %14, align 8
  %123 = load i64, ptr %14, align 8
  %124 = call ptr @palloc(i64 noundef %123)
  store ptr %124, ptr %15, align 8
  %125 = load ptr, ptr %15, align 8
  %126 = load i64, ptr %4, align 8
  %127 = call ptr @DatumGetPointer(i64 noundef %126)
  %128 = load i64, ptr %14, align 8
  call void @llvm.memcpy.p0.p0.i64(ptr align 1 %125, ptr align 1 %127, i64 %128, i1 false)
  %129 = load ptr, ptr %15, align 8
  %130 = call i64 @PointerGetDatum(ptr noundef %129)
  store i64 %130, ptr %7, align 8
  call void @llvm.lifetime.end.p0(i64 8, ptr %15) #7
  call void @llvm.lifetime.end.p0(i64 8, ptr %14) #7
  br label %131

131:                                              ; preds = %117, %116
  br label %132

132:                                              ; preds = %131, %19
  %133 = load i64, ptr %7, align 8
  call void @llvm.lifetime.end.p0(i64 8, ptr %7) #7
  ret i64 %133
}