; Function Attrs: nounwind uwtable
define dso_local i64 @datumCopy(i64 noundef %0, i1 noundef zeroext %1, i32 noundef %2) local_unnamed_addr #0 {
  br i1 %1, label %45, label %4

4:                                                ; preds = %3
  %5 = icmp eq i32 %2, -1
  br i1 %5, label %6, label %40

6:                                                ; preds = %4
  %7 = inttoptr i64 %0 to ptr
  %8 = load i8, ptr %7, align 1
  %9 = icmp eq i8 %8, 1
  br i1 %9, label %10, label %25

10:                                               ; preds = %6
  %11 = getelementptr inbounds nuw i8, ptr %7, i64 1
  %12 = load i8, ptr %11, align 1
  %13 = and i8 %12, -2
  %14 = icmp eq i8 %13, 2
  br i1 %14, label %15, label %20

15:                                               ; preds = %10
  %16 = tail call ptr @DatumGetEOHP(i64 noundef %0) #9
  %17 = tail call i64 @EOH_get_flat_size(ptr noundef %16) #9
  %18 = tail call ptr @palloc(i64 noundef %17) #9
  tail call void @EOH_flatten_into(ptr noundef %16, ptr noundef %18, i64 noundef %17) #9
  %19 = ptrtoint ptr %18 to i64
  br label %45

20:                                               ; preds = %10
  %21 = icmp eq i8 %12, 1
  %22 = icmp eq i8 %12, 18
  %23 = select i1 %22, i64 18, i64 2
  %24 = select i1 %21, i64 10, i64 %23
  br label %36

25:                                               ; preds = %6
  %26 = zext i8 %8 to i32
  %27 = and i32 %26, 1
  %.not = icmp eq i32 %27, 0
  br i1 %.not, label %30, label %28

28:                                               ; preds = %25
  %29 = lshr i32 %26, 1
  br label %33

30:                                               ; preds = %25
  %31 = load i32, ptr %7, align 4
  %32 = lshr i32 %31, 2
  br label %33

33:                                               ; preds = %30, %28
  %34 = phi i32 [ %29, %28 ], [ %32, %30 ]
  %35 = zext nneg i32 %34 to i64
  br label %36

36:                                               ; preds = %33, %20
  %37 = phi i64 [ %24, %20 ], [ %35, %33 ]
  %38 = tail call ptr @palloc(i64 noundef %37) #9
  tail call void @llvm.memcpy.p0.p0.i64(ptr align 1 %38, ptr nonnull align 1 %7, i64 %37, i1 false)
  %39 = ptrtoint ptr %38 to i64
  br label %45

40:                                               ; preds = %4
  %41 = tail call i64 @datumGetSize(i64 noundef %0, i1 noundef zeroext false, i32 noundef %2)
  %42 = tail call ptr @palloc(i64 noundef %41) #9
  %43 = inttoptr i64 %0 to ptr
  tail call void @llvm.memcpy.p0.p0.i64(ptr align 1 %42, ptr align 1 %43, i64 %41, i1 false)
  %44 = ptrtoint ptr %42 to i64
  br label %45

45:                                               ; preds = %15, %36, %3, %40
  %.0 = phi i64 [ %44, %40 ], [ %0, %3 ], [ %19, %15 ], [ %39, %36 ]
  ret i64 %.0
}